target datalayout = "e-m:e-p270:32:32-p271:32:32-p272:64:64-i64:64-i128:128-f80:128-n8:16:32:64-S128"
target triple = "x86_64-pc-linux-gnu"

; Function Attrs: nounwind uwtable
define dso_local void @memrevifle(ptr noundef %0, i64 noundef %1) #0 {
  %3 = alloca ptr, align 8
  %4 = alloca i64, align 8
  %5 = alloca ptr, align 8
  %6 = alloca ptr, align 8
  %7 = alloca i8, align 1
  %8 = alloca i32, align 4
  %9 = alloca ptr, align 8
  %10 = alloca i32, align 4
  store ptr %0, ptr %3, align 8, !tbaa !4
  store i64 %1, ptr %4, align 8, !tbaa !8
  call void @llvm.lifetime.start.p0(i64 8, ptr %5) #6
  %11 = load ptr, ptr %3, align 8, !tbaa !4
  store ptr %11, ptr %5, align 8, !tbaa !10
  call void @llvm.lifetime.start.p0(i64 8, ptr %6) #6
  %12 = load ptr, ptr %5, align 8, !tbaa !10
  %13 = load i64, ptr %4, align 8, !tbaa !8
  %14 = getelementptr inbounds nuw i8, ptr %12, i64 %13
  %15 = getelementptr inbounds i8, ptr %14, i64 -1
  store ptr %15, ptr %6, align 8, !tbaa !10
  call void @llvm.lifetime.start.p0(i64 1, ptr %7) #6
  call void @llvm.lifetime.start.p0(i64 4, ptr %8) #6
  store i32 1, ptr %8, align 4, !tbaa !12
  call void @llvm.lifetime.start.p0(i64 8, ptr %9) #6
  store ptr %8, ptr %9, align 8, !tbaa !10
  %16 = load ptr, ptr %9, align 8, !tbaa !10
  %17 = getelementptr inbounds i8, ptr %16, i64 0
  %18 = load i8, ptr %17, align 1, !tbaa !14
  %19 = zext i8 %18 to i32
  %20 = icmp eq i32 %19, 0
  br i1 %20, label %21, label %22

21:                                               ; preds = %2
  store i32 1, ptr %10, align 4
  br label %42

22:                                               ; preds = %2
  %23 = load i64, ptr %4, align 8, !tbaa !8
  %24 = udiv i64 %23, 2
  store i64 %24, ptr %4, align 8, !tbaa !8
  br label %25

25:                                               ; preds = %29, %22
  %26 = load i64, ptr %4, align 8, !tbaa !8
  %27 = add i64 %26, -1
  store i64 %27, ptr %4, align 8, !tbaa !8
  %28 = icmp ne i64 %26, 0
  br i1 %28, label %29, label %41

29:                                               ; preds = %25
  %30 = load ptr, ptr %5, align 8, !tbaa !10
  %31 = load i8, ptr %30, align 1, !tbaa !14
  store i8 %31, ptr %7, align 1, !tbaa !14
  %32 = load ptr, ptr %6, align 8, !tbaa !10
  %33 = load i8, ptr %32, align 1, !tbaa !14
  %34 = load ptr, ptr %5, align 8, !tbaa !10
  store i8 %33, ptr %34, align 1, !tbaa !14
  %35 = load i8, ptr %7, align 1, !tbaa !14
  %36 = load ptr, ptr %6, align 8, !tbaa !10
  store i8 %35, ptr %36, align 1, !tbaa !14
  %37 = load ptr, ptr %5, align 8, !tbaa !10
  %38 = getelementptr inbounds nuw i8, ptr %37, i32 1
  store ptr %38, ptr %5, align 8, !tbaa !10
  %39 = load ptr, ptr %6, align 8, !tbaa !10
  %40 = getelementptr inbounds i8, ptr %39, i32 -1
  store ptr %40, ptr %6, align 8, !tbaa !10
  br label %25, !llvm.loop !15

41:                                               ; preds = %25
  store i32 0, ptr %10, align 4
  br label %42

42:                                               ; preds = %41, %21
  call void @llvm.lifetime.end.p0(i64 8, ptr %9) #6
  call void @llvm.lifetime.end.p0(i64 4, ptr %8) #6
  call void @llvm.lifetime.end.p0(i64 1, ptr %7) #6
  call void @llvm.lifetime.end.p0(i64 8, ptr %6) #6
  call void @llvm.lifetime.end.p0(i64 8, ptr %5) #6
  %43 = load i32, ptr %10, align 4
  switch i32 %43, label %45 [
    i32 0, label %44
    i32 1, label %44
  ]

44:                                               ; preds = %42, %42
  ret void

45:                                               ; preds = %42
  unreachable
}