; Function Attrs: nofree norecurse nosync nounwind memory(argmem: readwrite) uwtable
define dso_local void @memrevifle(ptr noundef captures(none) %0, i64 noundef %1) local_unnamed_addr #0 {
  %.not14 = icmp ult i64 %1, 2
  br i1 %.not14, label %._crit_edge, label %.lr.ph.preheader

.lr.ph.preheader:                                 ; preds = %2
  %3 = lshr i64 %1, 1
  %4 = getelementptr inbounds nuw i8, ptr %0, i64 %1
  br label %.lr.ph

.lr.ph:                                           ; preds = %.lr.ph.preheader, %.lr.ph
  %.017 = phi i64 [ %5, %.lr.ph ], [ %3, %.lr.ph.preheader ]
  %.01216 = phi ptr [ %8, %.lr.ph ], [ %0, %.lr.ph.preheader ]
  %.pn15 = phi ptr [ %.013, %.lr.ph ], [ %4, %.lr.ph.preheader ]
  %.013 = getelementptr inbounds i8, ptr %.pn15, i64 -1
  %5 = add nsw i64 %.017, -1
  %6 = load i8, ptr %.01216, align 1, !tbaa !4
  %7 = load i8, ptr %.013, align 1, !tbaa !4
  store i8 %7, ptr %.01216, align 1, !tbaa !4
  store i8 %6, ptr %.013, align 1, !tbaa !4
  %8 = getelementptr inbounds nuw i8, ptr %.01216, i64 1
  %.not = icmp eq i64 %5, 0
  br i1 %.not, label %._crit_edge, label %.lr.ph, !llvm.loop !7

._crit_edge:                                      ; preds = %.lr.ph, %2
  ret void
}